; Function Attrs: nounwind uwtable
define noalias noundef ptr @Gia_ManGetCiLevels(ptr noundef readonly captures(none) %0) local_unnamed_addr #2 {
  %2 = getelementptr inbounds nuw i8, ptr %0, i64 160
  %3 = load ptr, ptr %2, align 8
  %4 = icmp eq ptr %3, null
  br i1 %4, label %.critedge, label %5

5:                                                ; preds = %1
  %6 = getelementptr i8, ptr %0, i64 64
  %.val17 = load ptr, ptr %6, align 8
  %7 = getelementptr i8, ptr %.val17, i64 4
  %.val17.val = load i32, ptr %7, align 4
  %8 = tail call noalias dereferenceable_or_null(16) ptr @malloc(i64 noundef 16) #40
  %9 = add i32 %.val17.val, -1
  %or.cond.i = icmp ult i32 %9, 15
  %spec.store.select.i = select i1 %or.cond.i, i32 16, i32 %.val17.val
  %10 = getelementptr inbounds nuw i8, ptr %8, i64 4
  store i32 0, ptr %10, align 4
  store i32 %spec.store.select.i, ptr %8, align 8
  %.not.i = icmp eq i32 %spec.store.select.i, 0
  br i1 %.not.i, label %Vec_IntAlloc.exit, label %11

11:                                               ; preds = %5
  %12 = sext i32 %spec.store.select.i to i64
  %13 = shl nsw i64 %12, 2
  %14 = tail call noalias ptr @malloc(i64 noundef %13) #40
  br label %Vec_IntAlloc.exit

Vec_IntAlloc.exit:                                ; preds = %5, %11
  %15 = phi ptr [ %14, %11 ], [ null, %5 ]
  %16 = getelementptr inbounds nuw i8, ptr %8, i64 8
  store ptr %15, ptr %16, align 8
  %17 = getelementptr i8, ptr %0, i64 32
  %18 = icmp sgt i32 %.val17.val, 0
  br i1 %18, label %.lr.ph, label %.critedge

.lr.ph:                                           ; preds = %Vec_IntAlloc.exit, %Vec_IntPush.exit
  %indvars.iv = phi i64 [ %indvars.iv.next, %Vec_IntPush.exit ], [ 0, %Vec_IntAlloc.exit ]
  %19 = phi ptr [ %57, %Vec_IntPush.exit ], [ %.val17, %Vec_IntAlloc.exit ]
  %.val13 = load ptr, ptr %17, align 8
  %.not = icmp eq ptr %.val13, null
  br i1 %.not, label %.critedge, label %20

20:                                               ; preds = %.lr.ph
  %21 = getelementptr i8, ptr %19, i64 8
  %.val14.val = load ptr, ptr %21, align 8
  %22 = getelementptr inbounds nuw i32, ptr %.val14.val, i64 %indvars.iv
  %23 = load i32, ptr %22, align 4
  %24 = zext i32 %23 to i64
  %.val16 = load ptr, ptr %2, align 8
  %25 = add nsw i32 %23, 1
  tail call fastcc void @Vec_IntFillExtra(ptr noundef %.val16, i32 noundef %25)
  %26 = getelementptr i8, ptr %.val16, i64 8
  %.val.i.i.i = load ptr, ptr %26, align 8
  %sext.i = shl nuw i64 %24, 32
  %27 = ashr exact i64 %sext.i, 30
  %28 = getelementptr inbounds i8, ptr %.val.i.i.i, i64 %27
  %29 = load i32, ptr %28, align 4
  %30 = load i32, ptr %10, align 4
  %31 = load i32, ptr %8, align 8
  %32 = icmp eq i32 %30, %31
  br i1 %32, label %33, label %.Vec_IntGrow.exit10_crit_edge.i

.Vec_IntGrow.exit10_crit_edge.i:                  ; preds = %20
  %.pre.i = load ptr, ptr %16, align 8
  br label %Vec_IntPush.exit

33:                                               ; preds = %20
  %34 = icmp slt i32 %30, 16
  br i1 %34, label %35, label %42

35:                                               ; preds = %33
  %36 = load ptr, ptr %16, align 8
  %.not9.i.i = icmp eq ptr %36, null
  br i1 %.not9.i.i, label %39, label %37

37:                                               ; preds = %35
  %38 = tail call dereferenceable_or_null(64) ptr @realloc(ptr noundef nonnull %36, i64 noundef 64) #39
  br label %Vec_IntGrow.exit.i

39:                                               ; preds = %35
  %40 = tail call noalias dereferenceable_or_null(64) ptr @malloc(i64 noundef 64) #40
  br label %Vec_IntGrow.exit.i

Vec_IntGrow.exit.i:                               ; preds = %39, %37
  %41 = phi ptr [ %38, %37 ], [ %40, %39 ]
  store ptr %41, ptr %16, align 8
  store i32 16, ptr %8, align 8
  br label %Vec_IntPush.exit

42:                                               ; preds = %33
  %43 = shl nuw nsw i32 %30, 1
  %44 = load ptr, ptr %16, align 8
  %.not9.i9.i = icmp eq ptr %44, null
  %45 = zext nneg i32 %43 to i64
  %46 = shl nuw nsw i64 %45, 2
  br i1 %.not9.i9.i, label %49, label %47

47:                                               ; preds = %42
  %48 = tail call ptr @realloc(ptr noundef nonnull %44, i64 noundef %46) #39
  br label %51

49:                                               ; preds = %42
  %50 = tail call noalias ptr @malloc(i64 noundef %46) #40
  br label %51

51:                                               ; preds = %49, %47
  %52 = phi ptr [ %48, %47 ], [ %50, %49 ]
  store ptr %52, ptr %16, align 8
  store i32 %43, ptr %8, align 8
  br label %Vec_IntPush.exit

Vec_IntPush.exit:                                 ; preds = %.Vec_IntGrow.exit10_crit_edge.i, %Vec_IntGrow.exit.i, %51
  %53 = phi ptr [ %.pre.i, %.Vec_IntGrow.exit10_crit_edge.i ], [ %52, %51 ], [ %41, %Vec_IntGrow.exit.i ]
  %54 = add nsw i32 %30, 1
  store i32 %54, ptr %10, align 4
  %55 = sext i32 %30 to i64
  %56 = getelementptr inbounds i32, ptr %53, i64 %55
  store i32 %29, ptr %56, align 4
  %indvars.iv.next = add nuw nsw i64 %indvars.iv, 1
  %57 = load ptr, ptr %6, align 8
  %58 = getelementptr i8, ptr %57, i64 4
  %.val = load i32, ptr %58, align 4
  %59 = sext i32 %.val to i64
  %60 = icmp slt i64 %indvars.iv.next, %59
  br i1 %60, label %.lr.ph, label %.critedge, !llvm.loop !25

.critedge:                                        ; preds = %Vec_IntPush.exit, %.lr.ph, %Vec_IntAlloc.exit, %1
  %.011 = phi ptr [ null, %1 ], [ %8, %Vec_IntAlloc.exit ], [ %8, %.lr.ph ], [ %8, %Vec_IntPush.exit ]
  ret ptr %.011
}